(iPubl_Func
Publisher
p0
(dp1
S'p_id'
p2
I1259
sS'p_no'
p3
I23250628
sS'p_name'
p4
S'S.dinesh & Co.'
p5
sS'p_add'
p6
S'4265, Mahalla Panjabian, Ansari Road, Darya ganj, Delhi'
p7
sb.(iPubl_Func
Publisher
p0
(dp1
S'p_id'
p2
I1284
sS'p_no'
p3
I23551616
sS'p_name'
p4
S'Shiv Das & Sons'
p5
sS'p_add'
p6
S'9665, Islamganj, library Road, Azad Market, Delhi'
p7
sb.(iPubl_Func
Publisher
p0
(dp1
S'p_id'
p2
I1309
sS'p_no'
p3
I23273595
sS'p_name'
p4
S'Pradeep Publication'
p5
sS'p_add'
p6
S'7/28, Mahavir Street, Ansari Road, Darya ganj, Delhi'
p7
sb.(iPubl_Func
Publisher
p0
(dp1
S'p_id'
p2
I1334
sS'p_no'
p3
I43585858
sS'p_name'
p4
S'Rachna Sagar Pvt. ltd.'
p5
sS'p_add'
p6
S'4583/15, Darya ganj, Delhi'
p7
sb.(iPubl_Func
Publisher
p0
(dp1
S'p_id'
p2
I1359
sS'p_no'
p3
I25278998
sS'p_name'
p4
S'Bharati Bhavan'
p5
sS'p_add'
p6
S'4271/3, Ansari Road, Darya ganj, Delhi'
p7
sb.(iPubl_Func
Publisher
p0
(dp1
S'p_id'
p2
I1409
sS'p_no'
p3
I29384756
sS'p_name'
p4
S'Miles Kelly Publishing Ltd'
p5
sS'p_add'
p6
S'The Bardfield Centre, Great Bardfield'
p7
sb.(iPubl_Func
Publisher
p0
(dp1
S'p_id'
p2
I1434
sS'p_no'
p3
I26354758
sS'p_name'
p4
S'Parragon Books Ltd'
p5
sS'p_add'
p6
S'Chartish House, 15-17, Trim Street'
p7
sb.(iPubl_Func
Publisher
p0
(dp1
S'p_id'
p2
I1459
sS'p_no'
p3
I27394756
sS'p_name'
p4
S'B.Jain Publishers Ltd'
p5
sS'p_add'
p6
S'1921, Street no-10, Darya ganj, Delhi'
p7
sb.(iPubl_Func
Publisher
p0
(dp1
S'p_id'
p2
I1484
sS'p_no'
p3
I28837649
sS'p_name'
p4
S'Rohan Book Company'
p5
sS'p_add'
p6
S'341/3D, Shalimar Park, Shadra, Delhi'
p7
sb.(iPubl_Func
Publisher
p0
(dp1
S'p_id'
p2
I1509
sS'p_no'
p3
I24354657
sS'p_name'
p4
S'Kingfisher publication'
p5
sS'p_add'
p6
S'New Penderel House, High Holborn'
p7
sb.(iPubl_Func
Publisher
p0
(dp1
S'p_id'
p2
I1534
sS'p_no'
p3
I22456789
sS'p_name'
p4
S'Maanu Graphics'
p5
sS'p_add'
p6
S'5F, Ganpati Bhavan, Darya ganj, Delhi'
p7
sb.(iPubl_Func
Publisher
p0
(dp1
S'p_id'
p2
I1559
sS'p_no'
p3
I24973865
sS'p_name'
p4
S'Spider Books'
p5
sS'p_add'
p6
S'Plot no-1352, 19 Main Road, Ansari Road, delhi'
p7
sb.(iPubl_Func
Publisher
p0
(dp1
S'p_id'
p2
I1584
sS'p_no'
p3
I25346798
sS'p_name'
p4
S'Upkar'
p5
sS'p_add'
p6
S'2/11A, Swadeshi Bima Nagar, Agra'
p7
sb.(iPubl_Func
Publisher
p0
(dp1
S'p_id'
p2
I1609
sS'p_no'
p3
I25272990
sS'p_name'
p4
S'Learners Publication'
p5
sS'p_add'
p6
S'332 Tagore Lane, Delhi'
p7
sb.(iPubl_Func
Publisher
p0
(dp1
S'p_id'
p2
I1634
sS'p_no'
p3
I24345320
sS'p_name'
p4
S'Tiny Tot Publication'
p5
sS'p_add'
p6
S'235, Jagriti Enclave, Vikas Nagar, Delhi'
p7
sb.(iPubl_Func
Publisher
p0
(dp1
S'p_id'
p2
I1659
sS'p_no'
p3
I27763549
sS'p_name'
p4
S'Manoj Publication'
p5
sS'p_add'
p6
S'761, 19 Main Road, Delhi'
p7
sb.