(iRack_Func
Rack
p0
(dp1
S'r_qty'
p2
I5
sS'r_name'
p3
S'XII-Books'
p4
sb.(iRack_Func
Rack
p0
(dp1
S'r_qty'
p2
I6
sS'r_name'
p3
S'XI-Books'
p4
sb.(iRack_Func
Rack
p0
(dp1
S'r_qty'
p2
I6
sS'r_name'
p3
S'Encyclopedia'
p4
sb.(iRack_Func
Rack
p0
(dp1
S'r_qty'
p2
I6
sS'r_name'
p3
S'Eng Grammar'
p4
sb.(iRack_Func
Rack
p0
(dp1
S'r_qty'
p2
I7
sS'r_name'
p3
S'Biography'
p4
sb.(iRack_Func
Rack
p0
(dp1
S'r_qty'
p2
I6
sS'r_name'
p3
S'Junior Books'
p4
sb.