(iTeacher_Func
Teacher
p0
(dp1
S't_id'
p2
S'111/2004'
p3
sS't_name'
p4
S'Ashok'
p5
sS't_status'
p6
I111
sb.(iTeacher_Func
Teacher
p0
(dp1
S't_id'
p2
S'222/2006'
p3
sS't_name'
p4
S'Komal'
p5
sS't_status'
p6
S'No'
p7
sb.(iTeacher_Func
Teacher
p0
(dp1
S't_id'
p2
S'333/2015'
p3
sS't_name'
p4
S'Monica'
p5
sS't_status'
p6
S'No'
p7
sb.(iTeacher_Func
Teacher
p0
(dp1
S't_id'
p2
S'555/2006'
p3
sS't_name'
p4
S'Pratibha'
p5
sS't_status'
p6
S'No'
p7
sb.(iTeacher_Func
Teacher
p0
(dp1
S't_id'
p2
S'666/2008'
p3
sS't_name'
p4
S'Harsh'
p5
sS't_status'
p6
S'No'
p7
sb.(iTeacher_Func
Teacher
p0
(dp1
S't_id'
p2
S'777/2013'
p3
sS't_name'
p4
S'Hemant'
p5
sS't_status'
p6
I243
sb.(iTeacher_Func
Teacher
p0
(dp1
S't_id'
p2
S'888/2012'
p3
sS't_name'
p4
S'Kanchan'
p5
sS't_status'
p6
S'No'
p7
sb.(iTeacher_Func
Teacher
p0
(dp1
S't_id'
p2
S'999/2000'
p3
sS't_name'
p4
S'Neeraj'
p5
sS't_status'
p6
I188
sb.(iTeacher_Func
Teacher
p0
(dp1
S't_id'
p2
S'1111/2008'
p3
sS't_name'
p4
S'Santosh'
p5
sS't_status'
p6
S'No'
p7
sb.(iTeacher_Func
Teacher
p0
(dp1
S't_id'
p2
S'1222/2009'
p3
sS't_name'
p4
S'Aashu'
p5
sS't_status'
p6
S'No'
p7
sb.(iTeacher_Func
Teacher
p0
(dp1
S't_id'
p2
S'1333/2008'
p3
sS't_name'
p4
S'Neha'
p5
sS't_status'
p6
S'No'
p7
sb.(iTeacher_Func
Teacher
p0
(dp1
S't_id'
p2
S'1444/2010'
p3
sS't_name'
p4
S'Aarti'
p5
sS't_status'
p6
I540
sb.(iTeacher_Func
Teacher
p0
(dp1
S't_id'
p2
S'1555/2011'
p3
sS't_name'
p4
S'mitali'
p5
sS't_status'
p6
S'yes'
p7
sb.